target datalayout = "e-m:e-p270:32:32-p271:32:32-p272:64:64-i64:64-i128:128-f80:128-n8:16:32:64-S128"
target triple = "x86_64-pc-linux-gnu"

@testctx = internal global ptr null, align 8
@.str.18 = private unnamed_addr constant [33 x i8] c"../openssl/test/evp_extra_test.c\00", align 1
@nullprov = internal global ptr null, align 8
@.str.108 = private unnamed_addr constant [52 x i8] c"Test does not support a non-default library context\00", align 1
@.str.140 = private unnamed_addr constant [4 x i8] c"RSA\00", align 1
@.str.141 = private unnamed_addr constant [4 x i8] c"DER\00", align 1
@testpropq = internal global ptr null, align 8
@test_EVP_Enveloped.msg = internal constant [8 x i8] c"\01\02\03\04\05\06\07\08", align 1
@.str.193 = private unnamed_addr constant [59 x i8] c"type = EVP_CIPHER_fetch(testctx, \22AES-256-CBC\22, testpropq)\00", align 1
@.str.194 = private unnamed_addr constant [12 x i8] c"AES-256-CBC\00", align 1
@.str.195 = private unnamed_addr constant [33 x i8] c"keypair = load_example_rsa_key()\00", align 1
@.str.196 = private unnamed_addr constant [49 x i8] c"kek = OPENSSL_zalloc(EVP_PKEY_get_size(keypair))\00", align 1
@.str.197 = private unnamed_addr constant [27 x i8] c"ctx = EVP_CIPHER_CTX_new()\00", align 1
@.str.198 = private unnamed_addr constant [57 x i8] c"EVP_SealInit(ctx, type, &kek, &kek_len, iv, &keypair, 1)\00", align 1
@.str.199 = private unnamed_addr constant [67 x i8] c"EVP_SealUpdate(ctx, ciphertext, &ciphertext_len, msg, sizeof(msg))\00", align 1
@.str.200 = private unnamed_addr constant [54 x i8] c"EVP_SealFinal(ctx, ciphertext + ciphertext_len, &len)\00", align 1
@.str.201 = private unnamed_addr constant [51 x i8] c"EVP_OpenInit(ctx, type, kek, kek_len, iv, keypair)\00", align 1
@.str.202 = private unnamed_addr constant [75 x i8] c"EVP_OpenUpdate(ctx, plaintext, &plaintext_len, ciphertext, ciphertext_len)\00", align 1
@.str.203 = private unnamed_addr constant [52 x i8] c"EVP_OpenFinal(ctx, plaintext + plaintext_len, &len)\00", align 1
@.str.204 = private unnamed_addr constant [4 x i8] c"msg\00", align 1
@.str.205 = private unnamed_addr constant [10 x i8] c"plaintext\00", align 1

; Function Attrs: nounwind uwtable
define internal ptr @load_example_key(ptr noundef %0, ptr noundef %1, i64 noundef %2) #0 {
  %4 = alloca ptr, align 8
  %5 = alloca ptr, align 8
  %6 = alloca i64, align 8
  %7 = alloca ptr, align 8
  %8 = alloca ptr, align 8
  %9 = alloca ptr, align 8
  store ptr %0, ptr %4, align 8, !tbaa !4
  store ptr %1, ptr %5, align 8, !tbaa !4
  store i64 %2, ptr %6, align 8, !tbaa !23
  call void @llvm.lifetime.start.p0(i64 8, ptr %7) #8
  store ptr %5, ptr %7, align 8, !tbaa !150
  call void @llvm.lifetime.start.p0(i64 8, ptr %8) #8
  store ptr null, ptr %8, align 8, !tbaa !21
  call void @llvm.lifetime.start.p0(i64 8, ptr %9) #8
  %10 = load ptr, ptr %4, align 8, !tbaa !4
  %11 = load ptr, ptr @testctx, align 8, !tbaa !11
  %12 = load ptr, ptr @testpropq, align 8, !tbaa !4
  %13 = call ptr @OSSL_DECODER_CTX_new_for_pkey(ptr noundef %8, ptr noundef @.str.141, ptr noundef null, ptr noundef %10, i32 noundef 0, ptr noundef %11, ptr noundef %12)
  store ptr %13, ptr %9, align 8, !tbaa !152
  %14 = load ptr, ptr %9, align 8, !tbaa !152
  %15 = load ptr, ptr %7, align 8, !tbaa !150
  %16 = call i32 @OSSL_DECODER_from_data(ptr noundef %14, ptr noundef %15, ptr noundef %6)
  %17 = load ptr, ptr %9, align 8, !tbaa !152
  call void @OSSL_DECODER_CTX_free(ptr noundef %17)
  %18 = load ptr, ptr %8, align 8, !tbaa !21
  call void @llvm.lifetime.end.p0(i64 8, ptr %9) #8
  call void @llvm.lifetime.end.p0(i64 8, ptr %8) #8
  call void @llvm.lifetime.end.p0(i64 8, ptr %7) #8
  ret ptr %18
}

; Function Attrs: nounwind uwtable
define internal ptr @load_example_rsa_key() #0 {
  %1 = call ptr @load_example_key(ptr noundef @.str.140, ptr noundef @kExampleRSAKeyDER, i64 noundef 608)
  ret ptr %1
}

; Function Attrs: nounwind uwtable
define internal i32 @test_EVP_Enveloped(i32 noundef %0) #0 {
  %2 = alloca i32, align 4
  %3 = alloca i32, align 4
  %4 = alloca i32, align 4
  %5 = alloca ptr, align 8
  %6 = alloca ptr, align 8
  %7 = alloca ptr, align 8
  %8 = alloca [16 x i8], align 16
  %9 = alloca i32, align 4
  %10 = alloca i32, align 4
  %11 = alloca i32, align 4
  %12 = alloca i32, align 4
  %13 = alloca [32 x i8], align 16
  %14 = alloca [16 x i8], align 16
  %15 = alloca ptr, align 8
  %16 = alloca i32, align 4
  store i32 %0, ptr %3, align 4, !tbaa !9
  call void @llvm.lifetime.start.p0(i64 4, ptr %4) #8
  store i32 0, ptr %4, align 4, !tbaa !9
  call void @llvm.lifetime.start.p0(i64 8, ptr %5) #8
  store ptr null, ptr %5, align 8, !tbaa !39
  call void @llvm.lifetime.start.p0(i64 8, ptr %6) #8
  store ptr null, ptr %6, align 8, !tbaa !21
  call void @llvm.lifetime.start.p0(i64 8, ptr %7) #8
  store ptr null, ptr %7, align 8, !tbaa !4
  call void @llvm.lifetime.start.p0(i64 16, ptr %8) #8
  call void @llvm.lifetime.start.p0(i64 4, ptr %9) #8
  call void @llvm.lifetime.start.p0(i64 4, ptr %10) #8
  call void @llvm.lifetime.start.p0(i64 4, ptr %11) #8
  call void @llvm.lifetime.start.p0(i64 4, ptr %12) #8
  call void @llvm.lifetime.start.p0(i64 32, ptr %13) #8
  call void @llvm.lifetime.start.p0(i64 16, ptr %14) #8
  call void @llvm.lifetime.start.p0(i64 8, ptr %15) #8
  store ptr null, ptr %15, align 8, !tbaa !41
  %17 = load ptr, ptr @nullprov, align 8, !tbaa !13
  %18 = icmp ne ptr %17, null
  br i1 %18, label %19, label %21

19:                                               ; preds = %1
  %20 = call i32 (ptr, i32, ptr, ...) @test_skip(ptr noundef @.str.18, i32 noundef 1661, ptr noundef @.str.108)
  store i32 %20, ptr %2, align 4
  store i32 1, ptr %16, align 4
  br label %136

21:                                               ; preds = %1
  %22 = load i32, ptr %3, align 4, !tbaa !9
  %23 = icmp eq i32 %22, 0
  br i1 %23, label %24, label %26

24:                                               ; preds = %21
  %25 = call ptr @EVP_aes_256_cbc()
  store ptr %25, ptr %15, align 8, !tbaa !41
  br label %34

26:                                               ; preds = %21
  %27 = load ptr, ptr @testctx, align 8, !tbaa !11
  %28 = load ptr, ptr @testpropq, align 8, !tbaa !4
  %29 = call ptr @EVP_CIPHER_fetch(ptr noundef %27, ptr noundef @.str.194, ptr noundef %28)
  store ptr %29, ptr %15, align 8, !tbaa !41
  %30 = call i32 @test_ptr(ptr noundef @.str.18, i32 noundef 1666, ptr noundef @.str.193, ptr noundef %29)
  %31 = icmp ne i32 %30, 0
  br i1 %31, label %33, label %32

32:                                               ; preds = %26
  br label %126

33:                                               ; preds = %26
  br label %34

34:                                               ; preds = %33, %24
  %35 = call ptr @load_example_rsa_key()
  store ptr %35, ptr %6, align 8, !tbaa !21
  %36 = call i32 @test_ptr(ptr noundef @.str.18, i32 noundef 1669, ptr noundef @.str.195, ptr noundef %35)
  %37 = icmp ne i32 %36, 0
  br i1 %37, label %38, label %77

38:                                               ; preds = %34
  %39 = load ptr, ptr %6, align 8, !tbaa !21
  %40 = call i32 @EVP_PKEY_get_size(ptr noundef %39)
  %41 = sext i32 %40 to i64
  %42 = call noalias ptr @CRYPTO_zalloc(i64 noundef %41, ptr noundef @.str.18, i32 noundef 1670)
  store ptr %42, ptr %7, align 8, !tbaa !4
  %43 = call i32 @test_ptr(ptr noundef @.str.18, i32 noundef 1670, ptr noundef @.str.196, ptr noundef %42)
  %44 = icmp ne i32 %43, 0
  br i1 %44, label %45, label %77

45:                                               ; preds = %38
  %46 = call ptr @EVP_CIPHER_CTX_new()
  store ptr %46, ptr %5, align 8, !tbaa !39
  %47 = call i32 @test_ptr(ptr noundef @.str.18, i32 noundef 1671, ptr noundef @.str.197, ptr noundef %46)
  %48 = icmp ne i32 %47, 0
  br i1 %48, label %49, label %77

49:                                               ; preds = %45
  %50 = load ptr, ptr %5, align 8, !tbaa !39
  %51 = load ptr, ptr %15, align 8, !tbaa !41
  %52 = getelementptr inbounds [16 x i8], ptr %8, i64 0, i64 0
  %53 = call i32 @EVP_SealInit(ptr noundef %50, ptr noundef %51, ptr noundef %7, ptr noundef %10, ptr noundef %52, ptr noundef %6, i32 noundef 1)
  %54 = icmp ne i32 %53, 0
  %55 = zext i1 %54 to i32
  %56 = call i32 @test_true(ptr noundef @.str.18, i32 noundef 1673, ptr noundef @.str.198, i32 noundef %55)
  %57 = icmp ne i32 %56, 0
  br i1 %57, label %58, label %77

58:                                               ; preds = %49
  %59 = load ptr, ptr %5, align 8, !tbaa !39
  %60 = getelementptr inbounds [32 x i8], ptr %13, i64 0, i64 0
  %61 = call i32 @EVP_EncryptUpdate(ptr noundef %59, ptr noundef %60, ptr noundef %11, ptr noundef @test_EVP_Enveloped.msg, i32 noundef 8)
  %62 = icmp ne i32 %61, 0
  %63 = zext i1 %62 to i32
  %64 = call i32 @test_true(ptr noundef @.str.18, i32 noundef 1675, ptr noundef @.str.199, i32 noundef %63)
  %65 = icmp ne i32 %64, 0
  br i1 %65, label %66, label %77

66:                                               ; preds = %58
  %67 = load ptr, ptr %5, align 8, !tbaa !39
  %68 = getelementptr inbounds [32 x i8], ptr %13, i64 0, i64 0
  %69 = load i32, ptr %11, align 4, !tbaa !9
  %70 = sext i32 %69 to i64
  %71 = getelementptr inbounds i8, ptr %68, i64 %70
  %72 = call i32 @EVP_SealFinal(ptr noundef %67, ptr noundef %71, ptr noundef %9)
  %73 = icmp ne i32 %72, 0
  %74 = zext i1 %73 to i32
  %75 = call i32 @test_true(ptr noundef @.str.18, i32 noundef 1677, ptr noundef @.str.200, i32 noundef %74)
  %76 = icmp ne i32 %75, 0
  br i1 %76, label %78, label %77

77:                                               ; preds = %66, %58, %49, %45, %38, %34
  br label %126

78:                                               ; preds = %66
  %79 = load i32, ptr %9, align 4, !tbaa !9
  %80 = load i32, ptr %11, align 4, !tbaa !9
  %81 = add nsw i32 %80, %79
  store i32 %81, ptr %11, align 4, !tbaa !9
  %82 = load ptr, ptr %5, align 8, !tbaa !39
  %83 = load ptr, ptr %15, align 8, !tbaa !41
  %84 = load ptr, ptr %7, align 8, !tbaa !4
  %85 = load i32, ptr %10, align 4, !tbaa !9
  %86 = getelementptr inbounds [16 x i8], ptr %8, i64 0, i64 0
  %87 = load ptr, ptr %6, align 8, !tbaa !21
  %88 = call i32 @EVP_OpenInit(ptr noundef %82, ptr noundef %83, ptr noundef %84, i32 noundef %85, ptr noundef %86, ptr noundef %87)
  %89 = icmp ne i32 %88, 0
  %90 = zext i1 %89 to i32
  %91 = call i32 @test_true(ptr noundef @.str.18, i32 noundef 1682, ptr noundef @.str.201, i32 noundef %90)
  %92 = icmp ne i32 %91, 0
  br i1 %92, label %93, label %114

93:                                               ; preds = %78
  %94 = load ptr, ptr %5, align 8, !tbaa !39
  %95 = getelementptr inbounds [16 x i8], ptr %14, i64 0, i64 0
  %96 = getelementptr inbounds [32 x i8], ptr %13, i64 0, i64 0
  %97 = load i32, ptr %11, align 4, !tbaa !9
  %98 = call i32 @EVP_DecryptUpdate(ptr noundef %94, ptr noundef %95, ptr noundef %12, ptr noundef %96, i32 noundef %97)
  %99 = icmp ne i32 %98, 0
  %100 = zext i1 %99 to i32
  %101 = call i32 @test_true(ptr noundef @.str.18, i32 noundef 1684, ptr noundef @.str.202, i32 noundef %100)
  %102 = icmp ne i32 %101, 0
  br i1 %102, label %103, label %114

103:                                              ; preds = %93
  %104 = load ptr, ptr %5, align 8, !tbaa !39
  %105 = getelementptr inbounds [16 x i8], ptr %14, i64 0, i64 0
  %106 = load i32, ptr %12, align 4, !tbaa !9
  %107 = sext i32 %106 to i64
  %108 = getelementptr inbounds i8, ptr %105, i64 %107
  %109 = call i32 @EVP_OpenFinal(ptr noundef %104, ptr noundef %108, ptr noundef %9)
  %110 = icmp ne i32 %109, 0
  %111 = zext i1 %110 to i32
  %112 = call i32 @test_true(ptr noundef @.str.18, i32 noundef 1685, ptr noundef @.str.203, i32 noundef %111)
  %113 = icmp ne i32 %112, 0
  br i1 %113, label %115, label %114

114:                                              ; preds = %103, %93, %78
  br label %126

115:                                              ; preds = %103
  %116 = load i32, ptr %9, align 4, !tbaa !9
  %117 = load i32, ptr %12, align 4, !tbaa !9
  %118 = add nsw i32 %117, %116
  store i32 %118, ptr %12, align 4, !tbaa !9
  %119 = getelementptr inbounds [16 x i8], ptr %14, i64 0, i64 0
  %120 = load i32, ptr %12, align 4, !tbaa !9
  %121 = sext i32 %120 to i64
  %122 = call i32 @test_mem_eq(ptr noundef @.str.18, i32 noundef 1689, ptr noundef @.str.204, ptr noundef @.str.205, ptr noundef @test_EVP_Enveloped.msg, i64 noundef 8, ptr noundef %119, i64 noundef %121)
  %123 = icmp ne i32 %122, 0
  br i1 %123, label %125, label %124

124:                                              ; preds = %115
  br label %126

125:                                              ; preds = %115
  store i32 1, ptr %4, align 4, !tbaa !9
  br label %126

126:                                              ; preds = %125, %124, %114, %77, %32
  %127 = load i32, ptr %3, align 4, !tbaa !9
  %128 = icmp ne i32 %127, 0
  br i1 %128, label %129, label %131

129:                                              ; preds = %126
  %130 = load ptr, ptr %15, align 8, !tbaa !41
  call void @EVP_CIPHER_free(ptr noundef %130)
  br label %131

131:                                              ; preds = %129, %126
  %132 = load ptr, ptr %7, align 8, !tbaa !4
  call void @CRYPTO_free(ptr noundef %132, ptr noundef @.str.18, i32 noundef 1696)
  %133 = load ptr, ptr %6, align 8, !tbaa !21
  call void @EVP_PKEY_free(ptr noundef %133)
  %134 = load ptr, ptr %5, align 8, !tbaa !39
  call void @EVP_CIPHER_CTX_free(ptr noundef %134)
  %135 = load i32, ptr %4, align 4, !tbaa !9
  store i32 %135, ptr %2, align 4
  store i32 1, ptr %16, align 4
  br label %136

136:                                              ; preds = %131, %19
  call void @llvm.lifetime.end.p0(i64 8, ptr %15) #8
  call void @llvm.lifetime.end.p0(i64 16, ptr %14) #8
  call void @llvm.lifetime.end.p0(i64 32, ptr %13) #8
  call void @llvm.lifetime.end.p0(i64 4, ptr %12) #8
  call void @llvm.lifetime.end.p0(i64 4, ptr %11) #8
  call void @llvm.lifetime.end.p0(i64 4, ptr %10) #8
  call void @llvm.lifetime.end.p0(i64 4, ptr %9) #8
  call void @llvm.lifetime.end.p0(i64 16, ptr %8) #8
  call void @llvm.lifetime.end.p0(i64 8, ptr %7) #8
  call void @llvm.lifetime.end.p0(i64 8, ptr %6) #8
  call void @llvm.lifetime.end.p0(i64 8, ptr %5) #8
  call void @llvm.lifetime.end.p0(i64 4, ptr %4) #8
  %137 = load i32, ptr %2, align 4
  ret i32 %137
}