; Function Attrs: nounwind uwtable
define internal i32 @test_EVP_Enveloped(i32 noundef %0) #1 {
  %2 = alloca ptr, align 8
  %3 = alloca i64, align 8
  %4 = alloca ptr, align 8
  %5 = alloca ptr, align 8
  %6 = alloca ptr, align 8
  %7 = alloca [16 x i8], align 16
  %8 = alloca i32, align 4
  %9 = alloca i32, align 4
  %10 = alloca i32, align 4
  %11 = alloca i32, align 4
  %12 = alloca [32 x i8], align 16
  %13 = alloca [16 x i8], align 16
  call void @llvm.lifetime.start.p0(i64 8, ptr nonnull %5) #9
  store ptr null, ptr %5, align 8, !tbaa !21
  call void @llvm.lifetime.start.p0(i64 8, ptr nonnull %6) #9
  store ptr null, ptr %6, align 8, !tbaa !19
  call void @llvm.lifetime.start.p0(i64 16, ptr nonnull %7) #9
  call void @llvm.lifetime.start.p0(i64 4, ptr nonnull %8) #9
  call void @llvm.lifetime.start.p0(i64 4, ptr nonnull %9) #9
  call void @llvm.lifetime.start.p0(i64 4, ptr nonnull %10) #9
  call void @llvm.lifetime.start.p0(i64 4, ptr nonnull %11) #9
  call void @llvm.lifetime.start.p0(i64 32, ptr nonnull %12) #9
  call void @llvm.lifetime.start.p0(i64 16, ptr nonnull %13) #9
  %14 = load ptr, ptr @nullprov, align 8, !tbaa !11
  %.not = icmp eq ptr %14, null
  br i1 %.not, label %17, label %15

15:                                               ; preds = %1
  %16 = tail call i32 (ptr, i32, ptr, ...) @test_skip(ptr noundef nonnull @.str.18, i32 noundef 1661, ptr noundef nonnull @.str.108) #9
  br label %92

17:                                               ; preds = %1
  %18 = icmp eq i32 %0, 0
  br i1 %18, label %19, label %21

19:                                               ; preds = %17
  %20 = tail call ptr @EVP_aes_256_cbc() #9
  br label %25

21:                                               ; preds = %17
  %22 = load ptr, ptr @testctx, align 8, !tbaa !6
  %23 = tail call ptr @EVP_CIPHER_fetch(ptr noundef %22, ptr noundef nonnull @.str.194, ptr noundef null) #9
  %24 = tail call i32 @test_ptr(ptr noundef nonnull @.str.18, i32 noundef 1666, ptr noundef nonnull @.str.193, ptr noundef %23) #9
  %.not16 = icmp eq i32 %24, 0
  br i1 %.not16, label %.thread, label %25

25:                                               ; preds = %21, %19
  %.0 = phi ptr [ %20, %19 ], [ %23, %21 ]
  call void @llvm.lifetime.start.p0(i64 8, ptr nonnull %2)
  call void @llvm.lifetime.start.p0(i64 8, ptr nonnull %3)
  store ptr @kExampleRSAKeyDER, ptr %2, align 8, !tbaa !19
  store i64 608, ptr %3, align 8, !tbaa !15
  call void @llvm.lifetime.start.p0(i64 8, ptr nonnull %4) #9
  store ptr null, ptr %4, align 8, !tbaa !21
  %26 = load ptr, ptr @testctx, align 8, !tbaa !6
  %27 = call ptr @OSSL_DECODER_CTX_new_for_pkey(ptr noundef nonnull %4, ptr noundef nonnull @.str.141, ptr noundef null, ptr noundef nonnull @.str.140, i32 noundef 0, ptr noundef %26, ptr noundef null) #9
  %28 = call i32 @OSSL_DECODER_from_data(ptr noundef %27, ptr noundef nonnull %2, ptr noundef nonnull %3) #9
  call void @OSSL_DECODER_CTX_free(ptr noundef %27) #9
  %29 = load ptr, ptr %4, align 8, !tbaa !21
  call void @llvm.lifetime.end.p0(i64 8, ptr nonnull %4) #9
  call void @llvm.lifetime.end.p0(i64 8, ptr nonnull %2)
  call void @llvm.lifetime.end.p0(i64 8, ptr nonnull %3)
  store ptr %29, ptr %5, align 8, !tbaa !21
  %30 = call i32 @test_ptr(ptr noundef nonnull @.str.18, i32 noundef 1669, ptr noundef nonnull @.str.195, ptr noundef %29) #9
  %.not17 = icmp eq i32 %30, 0
  br i1 %.not17, label %88, label %31

31:                                               ; preds = %25
  %32 = call i32 @EVP_PKEY_get_size(ptr noundef %29) #9
  %33 = sext i32 %32 to i64
  %34 = call noalias ptr @CRYPTO_zalloc(i64 noundef %33, ptr noundef nonnull @.str.18, i32 noundef 1670) #9
  store ptr %34, ptr %6, align 8, !tbaa !19
  %35 = call i32 @test_ptr(ptr noundef nonnull @.str.18, i32 noundef 1670, ptr noundef nonnull @.str.196, ptr noundef %34) #9
  %.not18 = icmp eq i32 %35, 0
  br i1 %.not18, label %88, label %36

36:                                               ; preds = %31
  %37 = call ptr @EVP_CIPHER_CTX_new() #9
  %38 = call i32 @test_ptr(ptr noundef nonnull @.str.18, i32 noundef 1671, ptr noundef nonnull @.str.197, ptr noundef %37) #9
  %.not19 = icmp eq i32 %38, 0
  br i1 %.not19, label %88, label %39

39:                                               ; preds = %36
  %40 = call i32 @EVP_SealInit(ptr noundef %37, ptr noundef %.0, ptr noundef nonnull %6, ptr noundef nonnull %9, ptr noundef nonnull %7, ptr noundef nonnull %5, i32 noundef 1) #9
  %41 = icmp ne i32 %40, 0
  %42 = zext i1 %41 to i32
  %43 = call i32 @test_true(ptr noundef nonnull @.str.18, i32 noundef 1673, ptr noundef nonnull @.str.198, i32 noundef %42) #9
  %.not20 = icmp eq i32 %43, 0
  br i1 %.not20, label %88, label %44

44:                                               ; preds = %39
  %45 = call i32 @EVP_EncryptUpdate(ptr noundef %37, ptr noundef nonnull %12, ptr noundef nonnull %10, ptr noundef nonnull @test_EVP_Enveloped.msg, i32 noundef 8) #9
  %46 = icmp ne i32 %45, 0
  %47 = zext i1 %46 to i32
  %48 = call i32 @test_true(ptr noundef nonnull @.str.18, i32 noundef 1675, ptr noundef nonnull @.str.199, i32 noundef %47) #9
  %.not21 = icmp eq i32 %48, 0
  br i1 %.not21, label %88, label %49

49:                                               ; preds = %44
  %50 = load i32, ptr %10, align 4, !tbaa !25
  %51 = sext i32 %50 to i64
  %52 = getelementptr inbounds i8, ptr %12, i64 %51
  %53 = call i32 @EVP_SealFinal(ptr noundef %37, ptr noundef nonnull %52, ptr noundef nonnull %8) #9
  %54 = icmp ne i32 %53, 0
  %55 = zext i1 %54 to i32
  %56 = call i32 @test_true(ptr noundef nonnull @.str.18, i32 noundef 1677, ptr noundef nonnull @.str.200, i32 noundef %55) #9
  %.not22 = icmp eq i32 %56, 0
  br i1 %.not22, label %88, label %57

57:                                               ; preds = %49
  %58 = load i32, ptr %8, align 4, !tbaa !25
  %59 = load i32, ptr %10, align 4, !tbaa !25
  %60 = add nsw i32 %59, %58
  store i32 %60, ptr %10, align 4, !tbaa !25
  %61 = load ptr, ptr %6, align 8, !tbaa !19
  %62 = load i32, ptr %9, align 4, !tbaa !25
  %63 = load ptr, ptr %5, align 8, !tbaa !21
  %64 = call i32 @EVP_OpenInit(ptr noundef %37, ptr noundef %.0, ptr noundef %61, i32 noundef %62, ptr noundef nonnull %7, ptr noundef %63) #9
  %65 = icmp ne i32 %64, 0
  %66 = zext i1 %65 to i32
  %67 = call i32 @test_true(ptr noundef nonnull @.str.18, i32 noundef 1682, ptr noundef nonnull @.str.201, i32 noundef %66) #9
  %.not23 = icmp eq i32 %67, 0
  br i1 %.not23, label %88, label %68

68:                                               ; preds = %57
  %69 = load i32, ptr %10, align 4, !tbaa !25
  %70 = call i32 @EVP_DecryptUpdate(ptr noundef %37, ptr noundef nonnull %13, ptr noundef nonnull %11, ptr noundef nonnull %12, i32 noundef %69) #9
  %71 = icmp ne i32 %70, 0
  %72 = zext i1 %71 to i32
  %73 = call i32 @test_true(ptr noundef nonnull @.str.18, i32 noundef 1684, ptr noundef nonnull @.str.202, i32 noundef %72) #9
  %.not24 = icmp eq i32 %73, 0
  br i1 %.not24, label %88, label %74

74:                                               ; preds = %68
  %75 = load i32, ptr %11, align 4, !tbaa !25
  %76 = sext i32 %75 to i64
  %77 = getelementptr inbounds i8, ptr %13, i64 %76
  %78 = call i32 @EVP_OpenFinal(ptr noundef %37, ptr noundef nonnull %77, ptr noundef nonnull %8) #9
  %79 = icmp ne i32 %78, 0
  %80 = zext i1 %79 to i32
  %81 = call i32 @test_true(ptr noundef nonnull @.str.18, i32 noundef 1685, ptr noundef nonnull @.str.203, i32 noundef %80) #9
  %.not25 = icmp eq i32 %81, 0
  br i1 %.not25, label %88, label %82

82:                                               ; preds = %74
  %83 = load i32, ptr %8, align 4, !tbaa !25
  %84 = load i32, ptr %11, align 4, !tbaa !25
  %85 = add nsw i32 %84, %83
  store i32 %85, ptr %11, align 4, !tbaa !25
  %86 = sext i32 %85 to i64
  %87 = call i32 @test_mem_eq(ptr noundef nonnull @.str.18, i32 noundef 1689, ptr noundef nonnull @.str.204, ptr noundef nonnull @.str.205, ptr noundef nonnull @test_EVP_Enveloped.msg, i64 noundef 8, ptr noundef nonnull %13, i64 noundef %86) #9
  %.not26 = icmp ne i32 %87, 0
  %spec.select = zext i1 %.not26 to i32
  br label %88

88:                                               ; preds = %82, %57, %68, %74, %25, %31, %36, %39, %44, %49
  %.014 = phi i32 [ 0, %74 ], [ 0, %68 ], [ 0, %57 ], [ 0, %49 ], [ 0, %44 ], [ 0, %39 ], [ 0, %36 ], [ 0, %31 ], [ 0, %25 ], [ %spec.select, %82 ]
  %.013 = phi ptr [ %37, %74 ], [ %37, %68 ], [ %37, %57 ], [ %37, %49 ], [ %37, %44 ], [ %37, %39 ], [ %37, %36 ], [ null, %31 ], [ null, %25 ], [ %37, %82 ]
  br i1 %18, label %89, label %.thread

.thread:                                          ; preds = %21, %88
  %.135 = phi ptr [ %.0, %88 ], [ %23, %21 ]
  %.01333 = phi ptr [ %.013, %88 ], [ null, %21 ]
  %.01431 = phi i32 [ %.014, %88 ], [ 0, %21 ]
  call void @EVP_CIPHER_free(ptr noundef %.135) #9
  br label %89

89:                                               ; preds = %.thread, %88
  %.01334 = phi ptr [ %.01333, %.thread ], [ %.013, %88 ]
  %.01432 = phi i32 [ %.01431, %.thread ], [ %.014, %88 ]
  %90 = load ptr, ptr %6, align 8, !tbaa !19
  call void @CRYPTO_free(ptr noundef %90, ptr noundef nonnull @.str.18, i32 noundef 1696) #9
  %91 = load ptr, ptr %5, align 8, !tbaa !21
  call void @EVP_PKEY_free(ptr noundef %91) #9
  call void @EVP_CIPHER_CTX_free(ptr noundef %.01334) #9
  br label %92

92:                                               ; preds = %89, %15
  %.015 = phi i32 [ %16, %15 ], [ %.01432, %89 ]
  call void @llvm.lifetime.end.p0(i64 16, ptr nonnull %13) #9
  call void @llvm.lifetime.end.p0(i64 32, ptr nonnull %12) #9
  call void @llvm.lifetime.end.p0(i64 4, ptr nonnull %11) #9
  call void @llvm.lifetime.end.p0(i64 4, ptr nonnull %10) #9
  call void @llvm.lifetime.end.p0(i64 4, ptr nonnull %9) #9
  call void @llvm.lifetime.end.p0(i64 4, ptr nonnull %8) #9
  call void @llvm.lifetime.end.p0(i64 16, ptr nonnull %7) #9
  call void @llvm.lifetime.end.p0(i64 8, ptr nonnull %6) #9
  call void @llvm.lifetime.end.p0(i64 8, ptr nonnull %5) #9
  ret i32 %.015
}